target datalayout = "e-m:e-p270:32:32-p271:32:32-p272:64:64-i64:64-i128:128-f80:128-n8:16:32:64-S128"
target triple = "x86_64-pc-linux-gnu"

%"class.pxrInternal_v0_24__pxrReserved__::GfVec2d" = type { [2 x double] }
%"class.pxrInternal_v0_24__pxrReserved__::GfFrustum" = type { %"class.pxrInternal_v0_24__pxrReserved__::GfVec3d", %"class.pxrInternal_v0_24__pxrReserved__::GfRotation", %"class.pxrInternal_v0_24__pxrReserved__::GfRange2d", %"class.pxrInternal_v0_24__pxrReserved__::GfRange1d", double, i32, %"struct.std::atomic" }
%"class.pxrInternal_v0_24__pxrReserved__::GfVec3d" = type { [3 x double] }
%"class.pxrInternal_v0_24__pxrReserved__::GfRotation" = type { %"class.pxrInternal_v0_24__pxrReserved__::GfVec3d", double }
%"class.pxrInternal_v0_24__pxrReserved__::GfRange2d" = type { %"class.pxrInternal_v0_24__pxrReserved__::GfVec2d", %"class.pxrInternal_v0_24__pxrReserved__::GfVec2d" }
%"class.pxrInternal_v0_24__pxrReserved__::GfRange1d" = type { double, double }
%"struct.std::atomic" = type { %"struct.std::__atomic_base" }
%"struct.std::__atomic_base" = type { ptr }

; Function Attrs: mustprogress nounwind uwtable
define linkonce_odr noundef ptr @_ZNSt6atomicIPSt5arrayIN32pxrInternal_v0_24__pxrReserved__7GfPlaneELm6EEE8exchangeES4_St12memory_order(ptr noundef nonnull align 8 dereferenceable(8) %0, ptr noundef %1, i32 noundef %2) #2 comdat align 2 {
  %4 = alloca ptr, align 8
  %5 = alloca ptr, align 8
  %6 = alloca i32, align 4
  %7 = alloca ptr, align 8
  %8 = alloca ptr, align 8
  %9 = alloca ptr, align 8
  %10 = alloca ptr, align 8
  %11 = alloca i32, align 4
  store ptr %0, ptr %9, align 8
  store ptr %1, ptr %10, align 8
  store i32 %2, ptr %11, align 4
  %12 = load ptr, ptr %9, align 8
  %13 = getelementptr inbounds nuw %"struct.std::atomic", ptr %12, i32 0, i32 0
  %14 = load ptr, ptr %10, align 8
  %15 = load i32, ptr %11, align 4
  store ptr %13, ptr %4, align 8
  store ptr %14, ptr %5, align 8
  store i32 %15, ptr %6, align 4
  %16 = load ptr, ptr %4, align 8
  %17 = load i32, ptr %6, align 4
  %18 = load ptr, ptr %5, align 8
  store ptr %18, ptr %7, align 8
  switch i32 %17, label %19 [
    i32 1, label %22
    i32 2, label %22
    i32 3, label %25
    i32 4, label %28
    i32 5, label %31
  ]

19:                                               ; preds = %3
  %20 = load i64, ptr %7, align 8
  %21 = atomicrmw xchg ptr %16, i64 %20 monotonic, align 8
  store i64 %21, ptr %8, align 8
  br label %34

22:                                               ; preds = %3, %3
  %23 = load i64, ptr %7, align 8
  %24 = atomicrmw xchg ptr %16, i64 %23 acquire, align 8
  store i64 %24, ptr %8, align 8
  br label %34

25:                                               ; preds = %3
  %26 = load i64, ptr %7, align 8
  %27 = atomicrmw xchg ptr %16, i64 %26 release, align 8
  store i64 %27, ptr %8, align 8
  br label %34

28:                                               ; preds = %3
  %29 = load i64, ptr %7, align 8
  %30 = atomicrmw xchg ptr %16, i64 %29 acq_rel, align 8
  store i64 %30, ptr %8, align 8
  br label %34

31:                                               ; preds = %3
  %32 = load i64, ptr %7, align 8
  %33 = atomicrmw xchg ptr %16, i64 %32 seq_cst, align 8
  store i64 %33, ptr %8, align 8
  br label %34

34:                                               ; preds = %31, %28, %25, %22, %19
  %35 = load ptr, ptr %8, align 8
  ret ptr %35
}

; Function Attrs: mustprogress nounwind uwtable
define void @_ZN32pxrInternal_v0_24__pxrReserved__9GfFrustum19_DirtyFrustumPlanesEv(ptr noundef nonnull align 8 dereferenceable(128) %0) #2 align 2 {
  %2 = alloca ptr, align 8
  store ptr %0, ptr %2, align 8
  %3 = load ptr, ptr %2, align 8
  %4 = getelementptr inbounds nuw %"class.pxrInternal_v0_24__pxrReserved__::GfFrustum", ptr %3, i32 0, i32 6
  %5 = call noundef ptr @_ZNSt6atomicIPSt5arrayIN32pxrInternal_v0_24__pxrReserved__7GfPlaneELm6EEE8exchangeES4_St12memory_order(ptr noundef nonnull align 8 dereferenceable(8) %4, ptr noundef null, i32 noundef 0) #11
  %6 = icmp eq ptr %5, null
  br i1 %6, label %8, label %7

7:                                                ; preds = %1
  call void @_ZdlPvm(ptr noundef %5, i64 noundef 192) #14
  br label %8

8:                                                ; preds = %7, %1
  ret void
}